; Function Attrs: mustprogress uwtable
define hidden void @_ZN6Assimp3ASE6Parser16ParseLV4MeshRealERf(ptr noundef nonnull align 8 captures(none) dereferenceable(188) %0, ptr noundef nonnull align 4 dereferenceable(4) %1) local_unnamed_addr #1 align 2 {
  %3 = alloca [2048 x i8], align 16
  %4 = getelementptr inbounds nuw i8, ptr %0, i64 8
  %5 = load ptr, ptr %4, align 8
  %6 = load ptr, ptr %0, align 8
  %7 = ptrtoint ptr %6 to i64
  %8 = ptrtoint ptr %5 to i64
  %9 = sub i64 %8, %7
  %scevgep.i.i = getelementptr i8, ptr %6, i64 %9
  br label %10

10:                                               ; preds = %13, %2
  %.0.i.i = phi ptr [ %6, %2 ], [ %14, %13 ]
  %11 = load i8, ptr %.0.i.i, align 1
  switch i8 %11, label %.critedge.i.i [
    i8 32, label %12
    i8 9, label %12
  ]

12:                                               ; preds = %10, %10
  %.not.i.i = icmp eq ptr %.0.i.i, %5
  br i1 %.not.i.i, label %.critedge.i.i, label %13

13:                                               ; preds = %12
  %14 = getelementptr inbounds nuw i8, ptr %.0.i.i, i64 1
  br label %10, !llvm.loop !34

.critedge.i.i:                                    ; preds = %12, %10
  %.0.lcssa.i.i = phi ptr [ %.0.i.i, %10 ], [ %scevgep.i.i, %12 ]
  store ptr %.0.lcssa.i.i, ptr %0, align 8
  %15 = load i8, ptr %.0.lcssa.i.i, align 1
  switch i8 %15, label %22 [
    i8 13, label %_ZN6Assimp10SkipSpacesIcEEbPPKT_S3_.exit
    i8 10, label %_ZN6Assimp10SkipSpacesIcEEbPPKT_S3_.exit
    i8 0, label %_ZN6Assimp10SkipSpacesIcEEbPPKT_S3_.exit
    i8 12, label %_ZN6Assimp10SkipSpacesIcEEbPPKT_S3_.exit
  ]

_ZN6Assimp10SkipSpacesIcEEbPPKT_S3_.exit:         ; preds = %.critedge.i.i, %.critedge.i.i, %.critedge.i.i, %.critedge.i.i
  call void @llvm.lifetime.start.p0(i64 2048, ptr nonnull %3) #28
  %16 = getelementptr inbounds nuw i8, ptr %0, i64 160
  %17 = load i32, ptr %16, align 8
  %18 = call i32 (ptr, i64, ptr, ...) @snprintf(ptr noundef nonnull dereferenceable(1) %3, i64 noundef 2048, ptr noundef nonnull @.str, i32 noundef %17, ptr noundef nonnull @.str.206) #28
  %19 = tail call noundef ptr @_ZN6Assimp13DefaultLogger3getEv()
  call void @_ZN6Assimp6Logger4warnIJRA2048_cEEEvDpOT_(ptr noundef nonnull align 8 dereferenceable(12) %19, ptr noundef nonnull align 1 dereferenceable(2048) %3)
  call void @llvm.lifetime.end.p0(i64 2048, ptr nonnull %3) #28
  store float 0.000000e+00, ptr %1, align 4
  %20 = load i32, ptr %16, align 8
  %21 = add i32 %20, 1
  store i32 %21, ptr %16, align 8
  br label %24

22:                                               ; preds = %.critedge.i.i
  %23 = tail call noundef ptr @_ZN6Assimp17fast_atoreal_moveIf17DeadlyImportErrorEEPKcS3_RT_b(ptr noundef nonnull %.0.lcssa.i.i, ptr noundef nonnull align 4 dereferenceable(4) %1, i1 noundef zeroext true)
  store ptr %23, ptr %0, align 8
  br label %24

24:                                               ; preds = %22, %_ZN6Assimp10SkipSpacesIcEEbPPKT_S3_.exit
  ret void
}